; Function Attrs: mustprogress uwtable
define void @_ZNK8facebook5velox4core17MergeExchangeNode9serializeEv(ptr noalias sret(%"struct.folly::dynamic") align 8 %agg.result, ptr noundef nonnull align 8 dereferenceable(104) %this) unnamed_addr #0 align 2 personality ptr @__gxx_personality_v0 {
entry:
  %ref.tmp = alloca %"struct.folly::dynamic", align 8
  %ref.tmp9 = alloca %"struct.folly::dynamic", align 8
  %ref.tmp17 = alloca %"struct.folly::dynamic", align 8
  tail call void @_ZNK8facebook5velox4core8PlanNode9serializeEv(ptr sret(%"struct.folly::dynamic") align 8 %agg.result, ptr noundef nonnull align 8 dereferenceable(40) %this)
  %outputType_.i = getelementptr inbounds i8, ptr %this, i64 40
  %0 = load ptr, ptr %outputType_.i, align 8
  %vtable = load ptr, ptr %0, align 8
  %vfn = getelementptr inbounds i8, ptr %vtable, i64 120
  %1 = load ptr, ptr %vfn, align 8
  invoke void %1(ptr nonnull sret(%"struct.folly::dynamic") align 8 %ref.tmp, ptr noundef nonnull align 8 dereferenceable(120) %0)
          to label %invoke.cont3 unwind label %lpad

invoke.cont3:                                     ; preds = %entry
  %call7 = invoke noundef nonnull align 8 dereferenceable(40) ptr @_ZNR5folly7dynamicixENS_5RangeIPKcEE(ptr noundef nonnull align 8 dereferenceable(40) %agg.result, ptr nonnull @.str.52, ptr nonnull getelementptr inbounds ([11 x i8], ptr @.str.52, i64 0, i64 10))
          to label %invoke.cont6 unwind label %lpad4

invoke.cont6:                                     ; preds = %invoke.cont3
  %call8 = call noundef nonnull align 8 dereferenceable(40) ptr @_ZN5folly7dynamicaSEOS0_(ptr noundef nonnull align 8 dereferenceable(40) %call7, ptr noundef nonnull align 8 dereferenceable(40) %ref.tmp) #30
  call void @_ZN5folly7dynamic7destroyEv(ptr noundef nonnull align 8 dereferenceable(40) %ref.tmp) #30
  %sortingKeys_ = getelementptr inbounds i8, ptr %this, i64 56
  invoke void @_ZN8facebook5velox13ISerializable9serializeISt10shared_ptrIKNS0_4core20FieldAccessTypedExprEEEEN5folly7dynamicERKSt6vectorIT_SaISB_EE(ptr nonnull sret(%"struct.folly::dynamic") align 8 %ref.tmp9, ptr noundef nonnull align 8 dereferenceable(24) %sortingKeys_)
          to label %invoke.cont10 unwind label %lpad

invoke.cont10:                                    ; preds = %invoke.cont6
  %call15 = invoke noundef nonnull align 8 dereferenceable(40) ptr @_ZNR5folly7dynamicixENS_5RangeIPKcEE(ptr noundef nonnull align 8 dereferenceable(40) %agg.result, ptr nonnull @.str.29, ptr nonnull getelementptr inbounds ([12 x i8], ptr @.str.29, i64 0, i64 11))
          to label %invoke.cont14 unwind label %lpad12

invoke.cont14:                                    ; preds = %invoke.cont10
  %call16 = call noundef nonnull align 8 dereferenceable(40) ptr @_ZN5folly7dynamicaSEOS0_(ptr noundef nonnull align 8 dereferenceable(40) %call15, ptr noundef nonnull align 8 dereferenceable(40) %ref.tmp9) #30
  call void @_ZN5folly7dynamic7destroyEv(ptr noundef nonnull align 8 dereferenceable(40) %ref.tmp9) #30
  %sortingOrders_ = getelementptr inbounds i8, ptr %this, i64 80
  %sortingOrders_.val = load ptr, ptr %sortingOrders_, align 8
  %2 = getelementptr inbounds i8, ptr %this, i64 88
  %sortingOrders_.val2 = load ptr, ptr %2, align 8
  invoke fastcc void @_ZN8facebook5velox4core12_GLOBAL__N_122serializeSortingOrdersERKSt6vectorINS1_9SortOrderESaIS4_EE(ptr noalias nonnull align 8 %ref.tmp17, ptr %sortingOrders_.val, ptr %sortingOrders_.val2)
          to label %invoke.cont18 unwind label %lpad

invoke.cont18:                                    ; preds = %invoke.cont14
  %call23 = invoke noundef nonnull align 8 dereferenceable(40) ptr @_ZNR5folly7dynamicixENS_5RangeIPKcEE(ptr noundef nonnull align 8 dereferenceable(40) %agg.result, ptr nonnull @.str.30, ptr nonnull getelementptr inbounds ([14 x i8], ptr @.str.30, i64 0, i64 13))
          to label %invoke.cont22 unwind label %lpad20

invoke.cont22:                                    ; preds = %invoke.cont18
  %call24 = call noundef nonnull align 8 dereferenceable(40) ptr @_ZN5folly7dynamicaSEOS0_(ptr noundef nonnull align 8 dereferenceable(40) %call23, ptr noundef nonnull align 8 dereferenceable(40) %ref.tmp17) #30
  call void @_ZN5folly7dynamic7destroyEv(ptr noundef nonnull align 8 dereferenceable(40) %ref.tmp17) #30
  ret void

lpad:                                             ; preds = %invoke.cont14, %invoke.cont6, %entry
  %3 = landingpad { ptr, i32 }
          cleanup
  br label %ehcleanup

lpad4:                                            ; preds = %invoke.cont3
  %4 = landingpad { ptr, i32 }
          cleanup
  call void @_ZN5folly7dynamic7destroyEv(ptr noundef nonnull align 8 dereferenceable(40) %ref.tmp) #30
  br label %ehcleanup

lpad12:                                           ; preds = %invoke.cont10
  %5 = landingpad { ptr, i32 }
          cleanup
  call void @_ZN5folly7dynamic7destroyEv(ptr noundef nonnull align 8 dereferenceable(40) %ref.tmp9) #30
  br label %ehcleanup

lpad20:                                           ; preds = %invoke.cont18
  %6 = landingpad { ptr, i32 }
          cleanup
  call void @_ZN5folly7dynamic7destroyEv(ptr noundef nonnull align 8 dereferenceable(40) %ref.tmp17) #30
  br label %ehcleanup

ehcleanup:                                        ; preds = %lpad20, %lpad12, %lpad4, %lpad
  %.pn = phi { ptr, i32 } [ %6, %lpad20 ], [ %3, %lpad ], [ %5, %lpad12 ], [ %4, %lpad4 ]
  call void @_ZN5folly7dynamic7destroyEv(ptr noundef nonnull align 8 dereferenceable(40) %agg.result) #30
  resume { ptr, i32 } %.pn
}